; Function Attrs: mustprogress nounwind uwtable
define noundef zeroext i1 @_ZN7glslang15TIndexTraverser14visitAggregateENS_6TVisitEPNS_16TIntermAggregateE(ptr nocapture noundef nonnull writeonly align 8 dereferenceable(96) %0, i32 %1, ptr noundef %2) unnamed_addr #0 align 2 {
  %4 = getelementptr inbounds i8, ptr %2, i64 184
  %5 = load i32, ptr %4, align 8
  %6 = icmp eq i32 %5, 4
  br i1 %6, label %7, label %13

7:                                                ; preds = %3
  %8 = getelementptr inbounds i8, ptr %0, i64 64
  store i8 1, ptr %8, align 8
  %9 = load ptr, ptr %2, align 8
  %10 = load ptr, ptr %9, align 8
  %11 = tail call noundef nonnull align 8 dereferenceable(24) ptr %10(ptr noundef nonnull align 8 dereferenceable(32) %2) #6
  %12 = getelementptr inbounds i8, ptr %0, i64 72
  tail call void @llvm.memcpy.p0.p0.i64(ptr noundef nonnull align 8 dereferenceable(24) %12, ptr noundef nonnull align 8 dereferenceable(24) %11, i64 24, i1 false)
  br label %13

13:                                               ; preds = %7, %3
  ret i1 true
}